; Function Attrs: mustprogress uwtable
define noundef zeroext i1 @_Z6CmpExtPKwS0_(ptr noundef %0, ptr noundef %1) local_unnamed_addr #3 {
  %3 = icmp eq ptr %0, null
  br i1 %3, label %_Z6GetExtPKw.exit.thread, label %4

4:                                                ; preds = %2
  %5 = tail call i64 @wcslen(ptr noundef nonnull readonly %0) #18
  %6 = and i64 %5, 4294967295
  br label %7

7:                                                ; preds = %10, %4
  %indvars.iv.i.i = phi i64 [ %11, %10 ], [ %6, %4 ]
  %8 = trunc nuw i64 %indvars.iv.i.i to i32
  %9 = icmp sgt i32 %8, 0
  br i1 %9, label %10, label %_Z6GetExtPKw.exit

10:                                               ; preds = %7
  %11 = add nsw i64 %indvars.iv.i.i, -1
  %12 = getelementptr inbounds nuw i32, ptr %0, i64 %11
  %13 = load i32, ptr %12, align 4
  %14 = icmp eq i32 %13, 47
  br i1 %14, label %15, label %7, !llvm.loop !4

15:                                               ; preds = %10
  %16 = getelementptr inbounds nuw i32, ptr %0, i64 %indvars.iv.i.i
  br label %_Z6GetExtPKw.exit

_Z6GetExtPKw.exit:                                ; preds = %7, %15
  %.011.i.i = phi ptr [ %16, %15 ], [ %0, %7 ]
  %17 = tail call ptr @wcsrchr(ptr noundef %.011.i.i, i32 noundef signext 46) #18
  %.not = icmp eq ptr %17, null
  br i1 %.not, label %_Z6GetExtPKw.exit.thread, label %18

18:                                               ; preds = %_Z6GetExtPKw.exit
  %19 = getelementptr inbounds nuw i8, ptr %17, i64 4
  %20 = tail call noundef i32 @_Z8wcsicompPKwS0_(ptr noundef nonnull %19, ptr noundef %1)
  %21 = icmp eq i32 %20, 0
  br label %_Z6GetExtPKw.exit.thread

_Z6GetExtPKw.exit.thread:                         ; preds = %2, %18, %_Z6GetExtPKw.exit
  %22 = phi i1 [ false, %_Z6GetExtPKw.exit ], [ %21, %18 ], [ false, %2 ]
  ret i1 %22
}